; Function Attrs: nofree norecurse nosync nounwind memory(read, inaccessiblemem: none) uwtable
define noundef ptr @find_flat_edge(ptr noundef readonly captures(address) %0, ptr noundef readonly captures(address) %1) local_unnamed_addr #0 {
  %3 = getelementptr inbounds nuw i8, ptr %0, i64 16
  %4 = load ptr, ptr %3, align 8, !tbaa !3
  %5 = getelementptr inbounds nuw i8, ptr %4, i64 288
  %6 = getelementptr inbounds nuw i8, ptr %1, i64 16
  %7 = load ptr, ptr %6, align 8, !tbaa !3
  %8 = getelementptr inbounds nuw i8, ptr %7, i64 304
  %9 = load ptr, ptr %5, align 8
  %10 = getelementptr inbounds nuw i8, ptr %4, i64 296
  %11 = load i64, ptr %10, align 8
  %12 = load ptr, ptr %8, align 8
  %13 = getelementptr inbounds nuw i8, ptr %7, i64 312
  %14 = load i64, ptr %13, align 8
  %15 = icmp ne i64 %11, 0
  %16 = icmp ne i64 %14, 0
  %or.cond.i = select i1 %15, i1 %16, i1 false
  br i1 %or.cond.i, label %17, label %ffe.exit

17:                                               ; preds = %2
  %18 = icmp ult i64 %11, %14
  br i1 %18, label %.preheader.i, label %.preheader27.i

.preheader27.i:                                   ; preds = %17
  %19 = load ptr, ptr %12, align 8, !tbaa !12
  %.not30.i = icmp eq ptr %19, null
  br i1 %.not30.i, label %ffe.exit, label %.lr.ph.i

.preheader.i:                                     ; preds = %17
  %20 = load ptr, ptr %9, align 8, !tbaa !12
  %.not2534.i = icmp eq ptr %20, null
  br i1 %.not2534.i, label %ffe.exit, label %.lr.ph36.i

21:                                               ; preds = %.lr.ph36.i
  %indvars.iv.next44.i = add nuw nsw i64 %indvars.iv43.i, 1
  %22 = getelementptr inbounds nuw ptr, ptr %9, i64 %indvars.iv.next44.i
  %23 = load ptr, ptr %22, align 8, !tbaa !12
  %.not25.i = icmp eq ptr %23, null
  br i1 %.not25.i, label %ffe.exit, label %.lr.ph36.i, !llvm.loop !14

.lr.ph36.i:                                       ; preds = %.preheader.i, %21
  %indvars.iv43.i = phi i64 [ %indvars.iv.next44.i, %21 ], [ 0, %.preheader.i ]
  %24 = phi ptr [ %23, %21 ], [ %20, %.preheader.i ]
  %25 = load i32, ptr %24, align 8
  %26 = and i32 %25, 3
  %27 = icmp eq i32 %26, 2
  %.idx26.i = select i1 %27, i64 0, i64 -64
  %28 = getelementptr inbounds i8, ptr %24, i64 %.idx26.i
  %29 = getelementptr inbounds nuw i8, ptr %28, i64 56
  %30 = load ptr, ptr %29, align 8, !tbaa !16
  %31 = icmp eq ptr %30, %1
  br i1 %31, label %ffe.exit, label %21

32:                                               ; preds = %.lr.ph.i
  %indvars.iv.next.i = add nuw nsw i64 %indvars.iv.i, 1
  %33 = getelementptr inbounds nuw ptr, ptr %12, i64 %indvars.iv.next.i
  %34 = load ptr, ptr %33, align 8, !tbaa !12
  %.not.i = icmp eq ptr %34, null
  br i1 %.not.i, label %ffe.exit, label %.lr.ph.i, !llvm.loop !21

.lr.ph.i:                                         ; preds = %.preheader27.i, %32
  %indvars.iv.i = phi i64 [ %indvars.iv.next.i, %32 ], [ 0, %.preheader27.i ]
  %35 = phi ptr [ %34, %32 ], [ %19, %.preheader27.i ]
  %36 = load i32, ptr %35, align 8
  %37 = and i32 %36, 3
  %38 = icmp eq i32 %37, 3
  %.idx.i = select i1 %38, i64 0, i64 64
  %39 = getelementptr inbounds nuw i8, ptr %35, i64 %.idx.i
  %40 = getelementptr inbounds nuw i8, ptr %39, i64 56
  %41 = load ptr, ptr %40, align 8, !tbaa !16
  %42 = icmp eq ptr %41, %0
  br i1 %42, label %ffe.exit, label %32

ffe.exit:                                         ; preds = %32, %.lr.ph.i, %21, %.lr.ph36.i, %2, %.preheader27.i, %.preheader.i
  %.0.i = phi ptr [ null, %2 ], [ null, %.preheader.i ], [ null, %.preheader27.i ], [ %24, %.lr.ph36.i ], [ null, %21 ], [ %35, %.lr.ph.i ], [ null, %32 ]
  ret ptr %.0.i
}